target datalayout = "e-m:e-p270:32:32-p271:32:32-p272:64:64-i64:64-i128:128-f80:128-n8:16:32:64-S128"
target triple = "x86_64-pc-linux-gnu"

%struct.Node = type { i32 }
%struct.Expr = type { i32 }
%struct.Var = type { %struct.Expr, i32, i16, i32, i32, i32, ptr, i32, i32, i32, i16, i32 }
%struct.indexed_tlist = type { ptr, i32, i8, i8, [0 x %struct.tlist_vinfo] }
%struct.tlist_vinfo = type { i32, i16, i16, ptr }
%struct.fix_windowagg_cond_context = type { ptr, ptr, i32 }

@.str.1 = private unnamed_addr constant [10 x i8] c"setrefs.c\00", align 1
@.str.7 = private unnamed_addr constant [45 x i8] c"WindowFunc not found in subplan target lists\00", align 1
@__func__.fix_windowagg_condition_expr_mutator = private unnamed_addr constant [37 x i8] c"fix_windowagg_condition_expr_mutator\00", align 1

; Function Attrs: nounwind uwtable
define internal ptr @search_indexed_tlist_for_non_var(ptr noundef %0, ptr noundef %1, i32 noundef %2) #0 {
  %4 = alloca ptr, align 8
  %5 = alloca ptr, align 8
  %6 = alloca ptr, align 8
  %7 = alloca i32, align 4
  %8 = alloca ptr, align 8
  %9 = alloca i32, align 4
  %10 = alloca ptr, align 8
  store ptr %0, ptr %5, align 8
  store ptr %1, ptr %6, align 8
  store i32 %2, ptr %7, align 4
  call void @llvm.lifetime.start.p0(i64 8, ptr %8) #8
  %11 = load ptr, ptr %5, align 8
  %12 = getelementptr inbounds nuw %struct.Node, ptr %11, i32 0, i32 0
  %13 = load i32, ptr %12, align 4
  %14 = icmp eq i32 %13, 7
  br i1 %14, label %15, label %16

15:                                               ; preds = %3
  store ptr null, ptr %4, align 8
  store i32 1, ptr %9, align 4
  br label %34

16:                                               ; preds = %3
  %17 = load ptr, ptr %5, align 8
  %18 = load ptr, ptr %6, align 8
  %19 = getelementptr inbounds nuw %struct.indexed_tlist, ptr %18, i32 0, i32 0
  %20 = load ptr, ptr %19, align 8
  %21 = call ptr @tlist_member(ptr noundef %17, ptr noundef %20)
  store ptr %21, ptr %8, align 8
  %22 = load ptr, ptr %8, align 8
  %23 = icmp ne ptr %22, null
  br i1 %23, label %24, label %33

24:                                               ; preds = %16
  call void @llvm.lifetime.start.p0(i64 8, ptr %10) #8
  %25 = load i32, ptr %7, align 4
  %26 = load ptr, ptr %8, align 8
  %27 = call ptr @makeVarFromTargetEntry(i32 noundef %25, ptr noundef %26)
  store ptr %27, ptr %10, align 8
  %28 = load ptr, ptr %10, align 8
  %29 = getelementptr inbounds nuw %struct.Var, ptr %28, i32 0, i32 9
  store i32 0, ptr %29, align 8
  %30 = load ptr, ptr %10, align 8
  %31 = getelementptr inbounds nuw %struct.Var, ptr %30, i32 0, i32 10
  store i16 0, ptr %31, align 4
  %32 = load ptr, ptr %10, align 8
  store ptr %32, ptr %4, align 8
  store i32 1, ptr %9, align 4
  call void @llvm.lifetime.end.p0(i64 8, ptr %10) #8
  br label %34

33:                                               ; preds = %16
  store ptr null, ptr %4, align 8
  store i32 1, ptr %9, align 4
  br label %34

34:                                               ; preds = %33, %24, %15
  call void @llvm.lifetime.end.p0(i64 8, ptr %8) #8
  %35 = load ptr, ptr %4, align 8
  ret ptr %35
}

; Function Attrs: nounwind uwtable
define internal ptr @fix_windowagg_condition_expr_mutator(ptr noundef %0, ptr noundef %1) #0 {
  %3 = alloca ptr, align 8
  %4 = alloca ptr, align 8
  %5 = alloca ptr, align 8
  %6 = alloca ptr, align 8
  %7 = alloca i32, align 4
  store ptr %0, ptr %4, align 8
  store ptr %1, ptr %5, align 8
  %8 = load ptr, ptr %4, align 8
  %9 = icmp eq ptr %8, null
  br i1 %9, label %10, label %11

10:                                               ; preds = %2
  store ptr null, ptr %3, align 8
  br label %47

11:                                               ; preds = %2
  %12 = load ptr, ptr %4, align 8
  %13 = getelementptr inbounds nuw %struct.Node, ptr %12, i32 0, i32 0
  %14 = load i32, ptr %13, align 4
  %15 = icmp eq i32 %14, 11
  br i1 %15, label %16, label %43

16:                                               ; preds = %11
  call void @llvm.lifetime.start.p0(i64 8, ptr %6) #8
  %17 = load ptr, ptr %4, align 8
  %18 = load ptr, ptr %5, align 8
  %19 = getelementptr inbounds nuw %struct.fix_windowagg_cond_context, ptr %18, i32 0, i32 1
  %20 = load ptr, ptr %19, align 8
  %21 = load ptr, ptr %5, align 8
  %22 = getelementptr inbounds nuw %struct.fix_windowagg_cond_context, ptr %21, i32 0, i32 2
  %23 = load i32, ptr %22, align 8
  %24 = call ptr @search_indexed_tlist_for_non_var(ptr noundef %17, ptr noundef %20, i32 noundef %23)
  store ptr %24, ptr %6, align 8
  %25 = load ptr, ptr %6, align 8
  %26 = icmp ne ptr %25, null
  br i1 %26, label %27, label %29

27:                                               ; preds = %16
  %28 = load ptr, ptr %6, align 8
  store ptr %28, ptr %3, align 8
  store i32 1, ptr %7, align 4
  br label %40

29:                                               ; preds = %16
  br label %30

30:                                               ; preds = %29
  br i1 true, label %31, label %33

31:                                               ; preds = %30
  %32 = call zeroext i1 @errstart_cold(i32 noundef 21, ptr noundef null) #9
  br i1 %32, label %35, label %37

33:                                               ; preds = %30
  %34 = call zeroext i1 @errstart(i32 noundef 21, ptr noundef null)
  br i1 %34, label %35, label %37

35:                                               ; preds = %33, %31
  %36 = call i32 (ptr, ...) @errmsg_internal(ptr noundef @.str.7)
  call void @errfinish(ptr noundef @.str.1, i32 noundef 3453, ptr noundef @__func__.fix_windowagg_condition_expr_mutator)
  br label %37

37:                                               ; preds = %35, %33, %31
  unreachable

38:                                               ; No predecessors!
  br label %39

39:                                               ; preds = %38
  store i32 0, ptr %7, align 4
  br label %40

40:                                               ; preds = %39, %27
  call void @llvm.lifetime.end.p0(i64 8, ptr %6) #8
  %41 = load i32, ptr %7, align 4
  switch i32 %41, label %49 [
    i32 0, label %42
    i32 1, label %47
  ]

42:                                               ; preds = %40
  br label %43

43:                                               ; preds = %42, %11
  %44 = load ptr, ptr %4, align 8
  %45 = load ptr, ptr %5, align 8
  %46 = call ptr @expression_tree_mutator_impl(ptr noundef %44, ptr noundef @fix_windowagg_condition_expr_mutator, ptr noundef %45)
  store ptr %46, ptr %3, align 8
  br label %47

47:                                               ; preds = %43, %40, %10
  %48 = load ptr, ptr %3, align 8
  ret ptr %48

49:                                               ; preds = %40
  unreachable
}