; Function Attrs: nounwind uwtable
define internal ptr @fix_windowagg_condition_expr_mutator(ptr noundef %0, ptr noundef %1) #0 {
  %3 = icmp eq ptr %0, null
  br i1 %3, label %22, label %4

4:                                                ; preds = %2
  %5 = load i32, ptr %0, align 4
  %6 = icmp eq i32 %5, 11
  br i1 %6, label %7, label %20

7:                                                ; preds = %4
  %8 = getelementptr inbounds nuw i8, ptr %1, i64 8
  %9 = load ptr, ptr %8, align 8
  %10 = getelementptr inbounds nuw i8, ptr %1, i64 16
  %11 = load i32, ptr %10, align 8
  %12 = load ptr, ptr %9, align 8
  %13 = tail call ptr @tlist_member(ptr noundef nonnull %0, ptr noundef %12) #8
  %.not.i = icmp eq ptr %13, null
  br i1 %.not.i, label %17, label %search_indexed_tlist_for_non_var.exit

search_indexed_tlist_for_non_var.exit:            ; preds = %7
  %14 = tail call ptr @makeVarFromTargetEntry(i32 noundef %11, ptr noundef nonnull %13) #8
  %15 = getelementptr inbounds nuw i8, ptr %14, i64 40
  store i32 0, ptr %15, align 8
  %16 = getelementptr inbounds nuw i8, ptr %14, i64 44
  store i16 0, ptr %16, align 4
  br label %22

17:                                               ; preds = %7
  %18 = tail call zeroext i1 @errstart_cold(i32 noundef 21, ptr noundef null) #9
  tail call void @llvm.assume(i1 %18)
  %19 = tail call i32 (ptr, ...) @errmsg_internal(ptr noundef nonnull @.str.7) #8
  tail call void @errfinish(ptr noundef nonnull @.str.1, i32 noundef 3453, ptr noundef nonnull @__func__.fix_windowagg_condition_expr_mutator) #8
  unreachable

20:                                               ; preds = %4
  %21 = tail call ptr @expression_tree_mutator_impl(ptr noundef nonnull %0, ptr noundef nonnull @fix_windowagg_condition_expr_mutator, ptr noundef %1) #8
  br label %22

22:                                               ; preds = %search_indexed_tlist_for_non_var.exit, %2, %20
  %.0 = phi ptr [ %21, %20 ], [ null, %2 ], [ %14, %search_indexed_tlist_for_non_var.exit ]
  ret ptr %.0
}